; ModuleID = 'source-C-CXX/55/1163.c'
source_filename = "source-C-CXX/55/1163.c"
target datalayout = "e-m:e-p270:32:32-p271:32:32-p272:64:64-i64:64-f80:128-n8:16:32:64-S128"
target triple = "x86_64-pc-linux-gnu"

@.str = private unnamed_addr constant [3 x i8] c"%d\00", align 1

; Function Attrs: nofree nounwind sspstrong uwtable
define dso_local i32 @main() local_unnamed_addr #0 {
  %1 = alloca i32, align 4
  %2 = bitcast i32* %1 to i8*
  call void @llvm.lifetime.start.p0i8(i64 4, i8* nonnull %2) #3
  %3 = call i32 (i8*, ...) @__isoc99_scanf(i8* getelementptr inbounds ([3 x i8], [3 x i8]* @.str, i64 0, i64 0), i32* nonnull %1)
  %4 = load i32, i32* %1, align 4, !tbaa !5
  %5 = icmp slt i32 %4, 11
  br i1 %5, label %77, label %6

6:                                                ; preds = %0
  %7 = icmp slt i32 %4, 101
  br i1 %7, label %8, label %15

8:                                                ; preds = %6
  %9 = trunc i32 %4 to i8
  %10 = udiv i8 %9, 10
  %11 = urem i8 %9, 10
  %12 = mul nuw nsw i8 %11, 10
  %13 = add nuw i8 %12, %10
  %14 = zext i8 %13 to i32
  br label %77

15:                                               ; preds = %6
  %16 = icmp slt i32 %4, 1001
  br i1 %16, label %17, label %30

17:                                               ; preds = %15
  %18 = trunc i32 %4 to i16
  %19 = udiv i16 %18, 100
  %20 = zext i16 %19 to i32
  %21 = mul nsw i32 %20, -100
  %22 = add nsw i32 %21, %4
  %23 = trunc i32 %22 to i16
  %24 = srem i16 %23, 10
  %25 = sext i16 %24 to i32
  %26 = mul nsw i32 %25, 100
  %27 = add nsw i32 %22, %20
  %28 = sub nsw i32 %27, %25
  %29 = add nsw i32 %28, %26
  br label %77

30:                                               ; preds = %15
  %31 = icmp slt i32 %4, 10001
  br i1 %31, label %32, label %54

32:                                               ; preds = %30
  %33 = trunc i32 %4 to i16
  %34 = udiv i16 %33, 1000
  %35 = zext i16 %34 to i32
  %36 = mul nsw i32 %35, -1000
  %37 = add nsw i32 %36, %4
  %38 = trunc i32 %37 to i16
  %39 = sdiv i16 %38, 100
  %40 = sext i16 %39 to i32
  %41 = mul nsw i32 %40, -100
  %42 = add nsw i32 %41, %37
  %43 = trunc i32 %42 to i16
  %44 = sdiv i16 %43, 10
  %45 = sext i16 %44 to i32
  %46 = srem i16 %43, 10
  %47 = mul nsw i16 %46, 1000
  %48 = sext i16 %47 to i32
  %49 = mul nsw i32 %45, 100
  %50 = mul nsw i32 %40, 10
  %51 = add nsw i32 %50, %35
  %52 = add nsw i32 %51, %48
  %53 = add nsw i32 %52, %49
  br label %77

54:                                               ; preds = %30
  %55 = icmp slt i32 %4, 100001
  br i1 %55, label %56, label %80

56:                                               ; preds = %54
  %57 = udiv i32 %4, 10000
  %58 = mul nsw i32 %57, -10000
  %59 = add nsw i32 %58, %4
  %60 = sdiv i32 %59, 1000
  %61 = mul nsw i32 %60, -1000
  %62 = add nsw i32 %61, %59
  %63 = srem i32 %62, 100
  %64 = trunc i32 %63 to i8
  %65 = sdiv i8 %64, 10
  %66 = sext i8 %65 to i32
  %67 = srem i8 %64, 10
  %68 = sext i8 %67 to i32
  %69 = mul nsw i32 %68, 10000
  %70 = mul nsw i32 %66, 1000
  %71 = mul nsw i32 %60, 10
  %72 = add nsw i32 %71, %57
  %73 = add nsw i32 %72, %62
  %74 = sub nsw i32 %73, %63
  %75 = add nsw i32 %74, %70
  %76 = add nsw i32 %75, %69
  br label %77

77:                                               ; preds = %0, %17, %56, %32, %8
  %78 = phi i32 [ %14, %8 ], [ %53, %32 ], [ %76, %56 ], [ %29, %17 ], [ %4, %0 ]
  %79 = call i32 (i8*, ...) @printf(i8* nonnull dereferenceable(1) getelementptr inbounds ([3 x i8], [3 x i8]* @.str, i64 0, i64 0), i32 %78)
  br label %80

80:                                               ; preds = %77, %54
  call void @llvm.lifetime.end.p0i8(i64 4, i8* nonnull %2) #3
  ret i32 0
}

; Function Attrs: argmemonly mustprogress nofree nosync nounwind willreturn
declare void @llvm.lifetime.start.p0i8(i64 immarg, i8* nocapture) #1

; Function Attrs: nofree nounwind
declare noundef i32 @__isoc99_scanf(i8* nocapture noundef readonly, ...) local_unnamed_addr #2

; Function Attrs: nofree nounwind
declare noundef i32 @printf(i8* nocapture noundef readonly, ...) local_unnamed_addr #2

; Function Attrs: argmemonly mustprogress nofree nosync nounwind willreturn
declare void @llvm.lifetime.end.p0i8(i64 immarg, i8* nocapture) #1


!llvm.module.flags = !{!0, !1, !2, !3}
!llvm.ident = !{!4}

!0 = !{i32 1, !"wchar_size", i32 4}
!1 = !{i32 7, !"PIC Level", i32 2}
!2 = !{i32 7, !"PIE Level", i32 2}
!3 = !{i32 7, !"uwtable", i32 1}
!4 = !{!"clang version 13.0.0"}
!5 = !{!6, !6, i64 0}
!6 = !{!"int", !7, i64 0}
!7 = !{!"omnipotent char", !8, i64 0}
!8 = !{!"Simple C/C++ TBAA"}
